(lp1
(lp2
S'115.0'
p3
aS'9.0104'
p4
aS'3.1323'
p5
aS'4.3342'
p6
aS'6.2402'
p7
aS'9.1007'
p8
aS'12.9195'
p9
aa(lp10
S'117.0'
p11
aS'7.3367'
p12
aS'3.0616'
p13
aS'4.1772'
p14
aS'6.0059'
p15
aS'8.6632'
p16
aS'12.0756'
p17
aa(lp18
S'118.0'
p19
aS'7.4935'
p20
aS'2.9044'
p21
aS'3.8612'
p22
aS'5.7861'
p23
aS'8.3001'
p24
aS'11.6767'
p25
aa(lp26
S'119.0'
p27
aS'7.6738'
p28
aS'2.6924'
p29
aS'3.7644'
p30
aS'5.5811'
p31
aS'8.0949'
p32
aS'11.6662'
p33
aa(lp34
S'120.0'
p35
aS'6.9701'
p36
aS'2.7279'
p37
aS'3.6900'
p38
aS'5.4346'
p39
aS'7.9257'
p40
aS'11.4531'
p41
aa(lp42
S'121.0'
p43
aS'6.5774'
p44
aS'2.7405'
p45
aS'3.7597'
p46
aS'5.3760'
p47
aS'7.8403'
p48
aS'11.2631'
p49
aa(lp50
S'122.0'
p51
aS'6.4722'
p52
aS'2.7464'
p53
aS'3.7317'
p54
aS'5.3467'
p55
aS'7.7549'
p56
aS'10.9106'
p57
aa(lp58
S'123.0'
p59
aS'6.9960'
p60
aS'2.8821'
p61
aS'3.8382'
p62
aS'5.4053'
p63
aS'7.7968'
p64
aS'10.8680'
p65
aa(lp66
S'124.0'
p67
aS'7.7551'
p68
aS'2.8111'
p69
aS'3.7885'
p70
aS'5.3906'
p71
aS'7.8187'
p72
aS'10.9332'
p73
aa(lp74
S'125.0'
p75
aS'8.7376'
p76
aS'2.7321'
p77
aS'3.6895'
p78
aS'5.2588'
p79
aS'7.6275'
p80
aS'11.3193'
p81
aa(lp82
S'126.0'
p83
aS'8.6807'
p84
aS'2.5780'
p85
aS'3.6671'
p86
aS'5.2588'
p87
aS'7.6694'
p88
aS'11.4077'
p89
aa(lp90
S'127.0'
p91
aS'7.7564'
p92
aS'2.9476'
p93
aS'3.9774'
p94
aS'5.6104'
p95
aS'8.0927'
p96
aS'11.2804'
p97
aa(lp98
S'128.0'
p99
aS'6.2804'
p100
aS'3.2319'
p101
aS'4.2074'
p102
aS'5.8887'
p103
aS'8.3533'
p104
aS'11.5999'
p105
aa(lp106
S'129.0'
p107
aS'4.9438'
p108
aS'2.9796'
p109
aS'3.9885'
p110
aS'5.7568'
p111
aS'8.4875'
p112
aS'11.8341'
p113
aa(lp114
S'130.0'
p115
aS'4.0397'
p116
aS'3.2023'
p117
aS'4.1989'
p118
aS'6.0059'
p119
aS'8.5674'
p120
aS'12.0896'
p121
aa(lp122
S'131.0'
p123
aS'3.4954'
p124
aS'3.2907'
p125
aS'4.4083'
p126
aS'6.2402'
p127
aS'8.9515'
p128
aS'12.4364'
p129
aa(lp130
S'132.0'
p131
aS'3.3196'
p132
aS'3.3960'
p133
aS'4.5403'
p134
aS'6.4160'
p135
aS'9.1525'
p136
aS'12.7534'
p137
aa(lp138
S'133.0'
p139
aS'3.6580'
p140
aS'3.5720'
p141
aS'4.7625'
p142
aS'6.6504'
p143
aS'9.5398'
p144
aS'13.2539'
p145
aa(lp146
S'134.0'
p147
aS'3.8963'
p148
aS'3.3706'
p149
aS'4.8700'
p150
aS'6.7676'
p151
aS'9.7619'
p152
aS'13.6916'
p153
aa(lp154
S'135.0'
p155
aS'3.9803'
p156
aS'3.9393'
p157
aS'5.2296'
p158
aS'7.1777'
p159
aS'10.3535'
p160
aS'14.3422'
p161
aa(lp162
S'136.0'
p163
aS'4.0052'
p164
aS'3.6911'
p165
aS'5.1454'
p166
aS'7.5293'
p167
aS'10.6806'
p168
aS'14.9272'
p169
aa(lp170
S'137.0'
p171
aS'4.1584'
p172
aS'3.9250'
p173
aS'5.6094'
p174
aS'7.8809'
p175
aS'11.1793'
p176
aS'15.5243'
p177
aa(lp178
S'138.0'
p179
aS'5.4659'
p180
aS'4.0126'
p181
aS'5.8293'
p182
aS'8.0566'
p183
aS'11.6213'
p184
aS'16.1989'
p185
aa(lp186
S'139.0'
p187
aS'5.4752'
p188
aS'4.2656'
p189
aS'6.1542'
p190
aS'8.7012'
p191
aS'12.3429'
p192
aS'17.0299'
p193
aa(lp194
S'140.0'
p195
aS'6.9802'
p196
aS'5.0829'
p197
aS'6.6699'
p198
aS'9.2285'
p199
aS'13.0910'
p200
aS'17.9450'
p201
aa(lp202
S'141.0'
p203
aS'8.6759'
p204
aS'5.2843'
p205
aS'6.9736'
p206
aS'9.6973'
p207
aS'13.6013'
p208
aS'18.8762'
p209
aa(lp210
S'142.0'
p211
aS'10.7138'
p212
aS'5.3581'
p213
aS'7.1721'
p214
aS'10.0488'
p215
aS'14.3347'
p216
aS'19.8478'
p217
aa(lp218
S'143.0'
p219
aS'13.5534'
p220
aS'5.6705'
p221
aS'7.5709'
p222
aS'10.6348'
p223
aS'15.1706'
p224
aS'21.0051'
p225
aa(lp226
S'144.0'
p227
aS'16.0229'
p228
aS'5.9876'
p229
aS'7.9948'
p230
aS'11.3965'
p231
aS'16.0755'
p232
aS'22.2445'
p233
aa(lp234
S'145.0'
p235
aS'18.9461'
p236
aS'6.6253'
p237
aS'8.7551'
p238
aS'12.2461'
p239
aS'17.3715'
p240
aS'23.8128'
p241
aa(lp242
S'146.0'
p243
aS'22.3684'
p244
aS'6.8540'
p245
aS'9.2111'
p246
aS'12.9492'
p247
aS'18.4721'
p248
aS'25.7397'
p249
aa(lp250
S'147.0'
p251
aS'26.8996'
p252
aS'7.6397'
p253
aS'10.0956'
p254
aS'14.1211'
p255
aS'20.1438'
p256
aS'27.8910'
p257
aa(lp258
S'148.0'
p259
aS'30.0857'
p260
aS'8.3399'
p261
aS'11.1194'
p262
aS'15.5273'
p263
aS'22.0261'
p264
aS'30.5868'
p265
aa(lp266
S'149.0'
p267
aS'34.2278'
p268
aS'8.7736'
p269
aS'11.8386'
p270
aS'16.6992'
p271
aS'23.9547'
p272
aS'33.2806'
p273
aa(lp274
S'150.0'
p275
aS'37.9551'
p276
aS'10.1023'
p277
aS'13.4012'
p278
aS'18.8086'
p279
aS'26.8306'
p280
aS'37.1495'
p281
aa(lp282
S'151.0'
p283
aS'42.6932'
p284
aS'11.0098'
p285
aS'14.7197'
p286
aS'20.8008'
p287
aS'29.8383'
p288
aS'41.4548'
p289
aa(lp290
S'152.0'
p291
aS'43.8269'
p292
aS'12.5450'
p293
aS'16.8933'
p294
aS'23.7891'
p295
aS'34.1249'
p296
aS'47.7088'
p297
aa(lp298
S'153.0'
p299
aS'42.8136'
p300
aS'14.3612'
p301
aS'19.3544'
p302
aS'27.5391'
p303
aS'39.5042'
p304
aS'54.8838'
p305
aa(lp306
S'154.0'
p307
aS'43.4528'
p308
aS'16.8056'
p309
aS'22.7692'
p310
aS'32.2266'
p311
aS'46.3568'
p312
aS'64.3096'
p313
aa(lp314
S'155.0'
p315
aS'43.6010'
p316
aS'19.9834'
p317
aS'27.0747'
p318
aS'38.3203'
p319
aS'55.1224'
p320
aS'76.9496'
p321
aa.