(dp1
S'7TeV'
p2
(dp3
S'Jets01FailPtG10EE'
p4
(dp5
I130
F8.3576344525371269
sI135
F7.7903313651966783
sI140
F7.1192902732195904
sI145
F5.8989507924511599
sI115
F16.671202826294682
sI150
F6.4414713538277226
sI120
F11.684884995464003
sI155
F6.0355333877967325
sI125
F11.040455309846138
ssS'Jets01PassPtG10OO'
p6
(dp7
I130
F20.533736659849296
sI135
F19.581769361973272
sI140
F17.890500791106319
sI145
F17.382654140819682
sI115
F35.318882671204335
sI150
F16.562100689483714
sI120
F25.763975501778589
sI155
F16.034923199074171
sI125
F22.062052053559455
ssS'Jets01FailPtG10BB'
p8
(dp9
I130
F16.261095558460283
sI135
F13.578224948979823
sI140
F13.75453768667046
sI145
F12.787024351974594
sI115
F25.420325887583601
sI150
F12.198076154959836
sI120
F21.395136814845273
sI155
F13.067183476678053
sI125
F18.00767005346097
ssS'Jets01FailPtG10BE'
p10
(dp11
I130
F15.624477648287609
sI135
F13.652613912548986
sI140
F13.597386934564554
sI145
F12.183376380346829
sI115
F29.083649806943185
sI150
F12.094988228800617
sI120
F22.519769057925885
sI155
F12.316880991232154
sI125
F18.728578120228462
ssS'Jet2CutsVBFPass'
p12
(dp13
I128
F2.2090546125275234
sI129
F2.1497454847460018
sI130
F2.0908614789632476
sI131
F2.1149558557048933
sI132
F2.1270756450960069
sI133
F2.1312177075724508
sI134
F2.0676566767526401
sI135
F2.0125717718068854
sI136
F1.9622945570670198
sI137
F1.8579132134389673
sI138
F1.8196259632984351
sI139
F1.7220945268220551
sI140
F1.2931550775749299
sI141
F1.2680294851837919
sI142
F1.6517919532335523
sI143
F1.2240851427646053
sI144
F1.1984711409639379
sI145
F1.1321493366195734
sI146
F1.113631644206762
sI147
F1.1492659830375656
sI148
F1.1327698842704517
sI149
F1.1178505087050232
sI150
F1.1920626363503319
sI120
F2.5975874691867027
sI121
F2.4047008646578947
sI122
F2.34238640592572
sI123
F2.1577775733162889
sI124
F2.2266337123408246
sI125
F2.1712412137413097
sI126
F2.3283738938299985
sI127
F2.2686270333050285
ssS'Jets01PassPtG10EE'
p14
(dp15
I130
F10.140903230374292
sI135
F9.2930447723401244
sI140
F8.9550268720788608
sI145
F9.6073381847290875
sI115
F21.666722435397617
sI150
F9.8387259167096914
sI120
F15.193619492708947
sI155
F9.3462784383709447
sI125
F11.710292611878046
ssS'Jets01PassPtG10OE'
p16
(dp17
I130
F22.687092813430581
sI135
F20.726674778892061
sI140
F19.639876450694032
sI145
F17.488098681616691
sI115
F39.429831949586173
sI150
F17.82615769104774
sI120
F27.46049135448061
sI155
F21.026220451298457
sI125
F25.140583827048829
ssS'Jets01FailPtG10BO'
p18
(dp19
I130
F24.249859529823198
sI135
F20.755342263575812
sI140
F19.337607249347457
sI145
F18.795436093238209
sI115
F40.070859027623669
sI150
F17.079676100938173
sI120
F30.114935278670487
sI155
F14.23820534776587
sI125
F26.632447634104778
ssS'Jets01PassPtG10BO'
p20
(dp21
I130
F32.753423520493925
sI135
F27.196620450181399
sI140
F25.007547102069111
sI145
F23.657393148924939
sI115
F48.288578730964673
sI150
F24.162229165013287
sI120
F37.679253309768455
sI155
F28.652852374149006
sI125
F35.198108438665486
ssS'Jets01FailPtG10OE'
p22
(dp23
I130
F19.471147564144701
sI135
F16.129130889584133
sI140
F13.714213671106506
sI145
F12.452670531926969
sI115
F29.651468988856777
sI150
F13.258753163491804
sI120
F22.949824899167538
sI155
F14.651271545279883
sI125
F21.587077769047312
ssS'Jets01FailPtG10OO'
p24
(dp25
I130
F14.685534961022313
sI135
F12.950032405756247
sI140
F13.284280644171929
sI145
F13.420889966665698
sI115
F29.471207646785501
sI150
F12.968536789956886
sI120
F19.732686429852265
sI155
F12.239470312281583
sI125
F16.856287441817756
ssS'Jets01PassPtG10BB'
p26
(dp27
I130
F19.196328746387508
sI135
F18.680124413809494
sI140
F18.078265462120953
sI145
F17.444601466991685
sI115
F32.482592617533669
sI150
F17.401192675432867
sI120
F24.845551398166435
sI155
F14.851782535150164
sI125
F22.344855215156599
ssS'Jet2CutsGFPass'
p28
(dp29
I130
F4.6961592089591626
sI135
F4.0521735817023306
sI140
F4.8571186681249827
sI145
F4.243350117674666
sI115
F7.6777470209790479
sI150
F4.5222396275071119
sI120
F6.3823606242445585
sI155
F4.0134804357823519
sI125
F6.3578567159592048
ssS'Jets01PassPtG10BE'
p30
(dp31
I130
F21.274860749464096
sI135
F18.055380181327791
sI140
F17.02047298562195
sI145
F16.517616524298546
sI115
F34.575800388712423
sI150
F16.020593499275037
sI120
F26.625272261370924
sI155
F17.425445664052177
sI125
F25.606324628939547
ssS'Jet2CutsFailVBFGF'
p32
(dp33
I130
F12.196059369492133
sI135
F10.461346539717084
sI140
F10.034030602867603
sI145
F9.7367641458857861
sI115
F16.983860439749577
sI150
F10.419564723513332
sI120
F14.106652751656753
sI155
F10.835475000910463
sI125
F13.081207256123093
sssS'8TeV'
p34
(dp35
g4
(dp36
I130
F18.388070270506432
sI135
F16.31118841930089
sI140
F15.375670811345742
sI145
F14.787574459808468
sI115
F42.548382606797929
sI150
F13.732929361769493
sI120
F27.746481545267727
sI155
F12.485973014767183
sI125
F21.77794231518584
ssg6
(dp37
I130
F50.150241427911169
sI135
F47.597269942548792
sI140
F41.626970248811631
sI145
F38.938525273734285
sI115
F83.568340839869052
sI150
F41.327211035878918
sI120
F60.091904219552816
sI155
F37.6282402928191
sI125
F55.240714774268781
ssg8
(dp38
I130
F36.740870263871102
sI135
F32.395101405475543
sI140
F29.510688531922369
sI145
F28.258021171381642
sI115
F61.312811780846914
sI150
F27.888945488731679
sI120
F47.680127142827132
sI155
F29.769655835882759
sI125
F42.755591072225798
ssg10
(dp39
I130
F38.630921152385099
sI135
F32.829620086600698
sI140
F29.242316555214984
sI145
F27.806212634481199
sI115
F68.561840035127034
sI150
F28.806639882334821
sI120
F50.441714831024001
sI155
F29.284871862617365
sI125
F45.201082913637265
ssg12
(dp40
I130
F4.0226860997136598
sI135
F3.4218272312790248
sI140
F3.2420914705756978
sI145
F4.4011311426274311
sI115
F7.585621771150592
sI150
F5.61225238046163
sI120
F4.9687276304265282
sI155
F4.886971061982571
sI125
F4.5505141471334802
ssg14
(dp41
I130
F28.343559867266663
sI135
F26.222555367044947
sI140
F23.350678845438097
sI145
F22.685937545780462
sI115
F52.661714544071629
sI150
F24.081144701705966
sI120
F34.2687810192283
sI155
F26.079490388854879
sI125
F31.987589326201487
ssg16
(dp42
I130
F55.346063140967999
sI135
F46.680870456185403
sI140
F41.253959695243339
sI145
F40.13854749785196
sI115
F89.102625848724529
sI150
F43.701333800438078
sI120
F64.63410441284941
sI155
F49.037114063622539
sI125
F60.092193503291583
ssg18
(dp43
I130
F47.752939033228358
sI135
F42.259624088188502
sI140
F40.744594467617844
sI145
F39.383998271901419
sI115
F89.805720775211284
sI150
F37.837162404681294
sI120
F68.629592166587827
sI155
F36.560244065284223
sI125
F54.241843773109395
ssg20
(dp44
I130
F73.87950176540653
sI135
F65.835772301259567
sI140
F59.370080417282225
sI145
F57.620539914628353
sI115
F113.61293275641128
sI150
F60.326230629183556
sI120
F86.499974069030031
sI155
F67.588452736286854
sI125
F80.335736704591
ssg22
(dp45
I130
F41.2600507480945
sI135
F35.029590583960726
sI140
F31.486531111827844
sI145
F29.18268037010921
sI115
F73.041288240020094
sI150
F30.506359374672229
sI120
F55.303484555502337
sI155
F30.558302926687702
sI125
F49.408228800421739
ssg24
(dp46
I130
F37.898550478155812
sI135
F33.539956729943242
sI140
F30.618359045357693
sI145
F27.559399456143183
sI115
F67.273446180009614
sI150
F28.348982712105226
sI120
F50.656111331833017
sI155
F29.8382624088581
sI125
F45.151105723824458
ssg26
(dp47
I130
F52.347115557361576
sI135
F46.683615067951905
sI140
F42.096838316421781
sI145
F41.167450732305497
sI115
F79.335879304991522
sI150
F42.699989462832491
sI120
F61.120626752237968
sI155
F50.06947210701037
sI125
F55.807792341830918
ssg28
(dp48
I130
F12.433097002289117
sI135
F12.240839621611684
sI140
F12.697381736166108
sI145
F12.36190076580553
sI115
F20.451510513815833
sI150
F12.412877053419606
sI120
F14.896327108894241
sI155
F12.255205838123942
sI125
F13.498618439197173
ssg30
(dp49
I130
F52.77110825386535
sI135
F46.287916202356428
sI140
F42.071301559055883
sI145
F39.994120885008215
sI115
F81.735290128339784
sI150
F40.742420907296037
sI120
F62.081617495169667
sI155
F46.801028052541369
sI125
F57.644220953318381
ssg32
(dp50
I130
F31.79967778497678
sI135
F29.338435717435118
sI140
F26.125087383740834
sI145
F23.946877633915619
sI115
F47.355189480083595
sI150
F25.102544315576324
sI120
F37.353312176006398
sI155
F28.635582074952595
sI125
F34.477838072898294
sss.